Certificate:
    Data:
        Version: 3 (0x2)
        Serial Number:
            8c:a1:97:b8:3b:32:45:d5:ca:3b:f1:1c:48:15:40:fe
        Signature Algorithm: sha256WithRSAEncryption
        Issuer: CN=main_server.local
        Validity
            Not Before: May 21 12:24:10 2024 GMT
            Not After : Aug 24 12:24:10 2026 GMT
        Subject: CN=remote
        Subject Public Key Info:
            Public Key Algorithm: rsaEncryption
                Public-Key: (2048 bit)
                Modulus:
                    00:c6:5f:d2:48:64:9e:a0:ff:99:7c:1f:d0:61:bd:
                    26:8a:68:e7:0d:1b:29:86:24:49:0d:b5:18:c9:59:
                    09:bb:96:02:b6:38:34:a4:7a:14:32:2c:3e:2c:02:
                    c1:3f:c7:07:6b:27:4b:87:2c:6c:d5:7f:90:af:c7:
                    90:e9:ff:ff:f6:1c:c7:94:76:0b:95:a3:46:3b:0f:
                    63:ca:84:96:3b:46:0a:34:db:19:ab:c9:d4:9e:41:
                    b9:45:22:a0:35:7f:36:c7:f6:4e:d7:07:dd:e7:0b:
                    98:7f:2e:fd:84:99:5a:04:1e:25:5c:22:cf:b6:4d:
                    a2:25:6a:90:de:e2:e5:ba:72:31:56:79:68:dd:b7:
                    16:57:66:5d:ff:96:20:98:d6:7b:93:65:e2:cb:a6:
                    a6:54:52:63:b6:2e:0c:c5:2f:3a:79:43:d6:c0:37:
                    c9:6d:5b:c1:c8:df:50:a3:8d:35:b2:ab:7a:77:7d:
                    0a:46:e8:de:9a:af:d2:a1:18:5f:d6:a8:a4:cd:0e:
                    38:17:1b:be:99:00:78:49:a2:03:fc:18:3d:30:40:
                    be:ef:61:a7:ea:ce:b6:d8:ac:86:01:eb:b9:68:37:
                    45:24:00:10:09:68:45:55:9d:d1:d3:c0:bb:15:67:
                    46:d4:16:14:93:f8:35:a3:e3:74:a1:a6:4a:de:3f:
                    95:15
                Exponent: 65537 (0x10001)
        X509v3 extensions:
            X509v3 Basic Constraints: 
                CA:FALSE
            X509v3 Subject Key Identifier: 
                C5:90:76:19:C5:B8:6A:D6:94:70:A5:DD:F3:FB:AE:08:BE:94:40:BB
            X509v3 Authority Key Identifier: 
                keyid:9F:4A:2D:DE:31:ED:F7:BC:A3:29:4B:FD:6A:6B:2C:14:4A:6D:D6:D4
                DirName:/CN=main_server.local
                serial:41:77:56:6A:53:A5:23:74:72:4B:C2:7C:4C:68:B6:07:07:68:08:6F
            X509v3 Extended Key Usage: 
                TLS Web Client Authentication
            X509v3 Key Usage: 
                Digital Signature
    Signature Algorithm: sha256WithRSAEncryption
    Signature Value:
        c2:c2:45:4f:5f:b8:3c:c8:34:cc:83:51:03:42:2c:31:1b:40:
        12:dd:40:d9:7b:b0:82:47:1a:25:96:59:47:35:5d:dc:2b:82:
        25:c7:e3:d4:e6:33:4c:ab:e1:6e:ac:b3:14:d7:2f:39:77:e2:
        6a:c3:e6:33:c5:6d:37:95:bd:7d:6e:1f:b1:06:f1:c8:84:cf:
        7e:d6:17:d3:d6:92:21:b1:b5:46:63:81:d2:5d:24:64:76:1d:
        f8:b9:5f:28:46:8e:08:76:82:42:6c:cd:d0:57:ec:f8:ac:a8:
        44:48:15:64:8a:56:2c:56:0e:bb:a0:2b:46:8d:f8:58:55:5d:
        4a:f5:76:5e:58:f8:35:00:85:8f:e0:cf:6c:95:92:32:c6:1f:
        bf:0e:60:21:d1:23:d0:07:ce:c4:47:e1:d1:c2:63:69:2b:31:
        74:9f:4d:71:ce:2e:4a:ae:ac:cb:1e:59:6d:39:b0:70:56:2d:
        20:c0:50:3d:8d:8b:9b:b0:1b:92:62:1e:67:20:65:5b:b7:f0:
        88:0d:f3:3b:ed:0a:49:cf:b1:b9:ae:9c:21:66:58:14:ce:c0:
        66:35:c1:5c:05:ce:a4:56:33:80:0a:12:1e:c3:b8:c0:f6:9f:
        b1:4c:d0:53:f8:05:c1:c9:80:7f:9c:0f:c3:e3:75:77:01:3e:
        a4:ab:a3:6c
-----BEGIN CERTIFICATE-----
MIIDYTCCAkmgAwIBAgIRAIyhl7g7MkXVyjvxHEgVQP4wDQYJKoZIhvcNAQELBQAw
HDEaMBgGA1UEAwwRbWFpbl9zZXJ2ZXIubG9jYWwwHhcNMjQwNTIxMTIyNDEwWhcN
MjYwODI0MTIyNDEwWjARMQ8wDQYDVQQDDAZyZW1vdGUwggEiMA0GCSqGSIb3DQEB
AQUAA4IBDwAwggEKAoIBAQDGX9JIZJ6g/5l8H9BhvSaKaOcNGymGJEkNtRjJWQm7
lgK2ODSkehQyLD4sAsE/xwdrJ0uHLGzVf5Cvx5Dp///2HMeUdguVo0Y7D2PKhJY7
Rgo02xmrydSeQblFIqA1fzbH9k7XB93nC5h/Lv2EmVoEHiVcIs+2TaIlapDe4uW6
cjFWeWjdtxZXZl3/liCY1nuTZeLLpqZUUmO2LgzFLzp5Q9bAN8ltW8HI31CjjTWy
q3p3fQpG6N6ar9KhGF/WqKTNDjgXG76ZAHhJogP8GD0wQL7vYafqzrbYrIYB67lo
N0UkABAJaEVVndHTwLsVZ0bUFhST+DWj43ShpkreP5UVAgMBAAGjgagwgaUwCQYD
VR0TBAIwADAdBgNVHQ4EFgQUxZB2GcW4ataUcKXd8/uuCL6UQLswVwYDVR0jBFAw
ToAUn0ot3jHt97yjKUv9amssFEpt1tShIKQeMBwxGjAYBgNVBAMMEW1haW5fc2Vy
dmVyLmxvY2FsghRBd1ZqU6UjdHJLwnxMaLYHB2gIbzATBgNVHSUEDDAKBggrBgEF
BQcDAjALBgNVHQ8EBAMCB4AwDQYJKoZIhvcNAQELBQADggEBAMLCRU9fuDzINMyD
UQNCLDEbQBLdQNl7sIJHGiWWWUc1XdwrgiXH49TmM0yr4W6ssxTXLzl34mrD5jPF
bTeVvX1uH7EG8ciEz37WF9PWkiGxtUZjgdJdJGR2Hfi5XyhGjgh2gkJszdBX7Pis
qERIFWSKVixWDrugK0aN+FhVXUr1dl5Y+DUAhY/gz2yVkjLGH78OYCHRI9AHzsRH
4dHCY2krMXSfTXHOLkqurMseWW05sHBWLSDAUD2Ni5uwG5JiHmcgZVu38IgN8zvt
CknPsbmunCFmWBTOwGY1wVwFzqRWM4AKEh7DuMD2n7FM0FP4BcHJgH+cD8PjdXcB
PqSro2w=
-----END CERTIFICATE-----
