Certificate:
    Data:
        Version: 3 (0x2)
        Serial Number:
            d6:04:2b:3f:31:4a:26:9f:29:88:b5:b2:d3:8d:b4:53
        Signature Algorithm: sha256WithRSAEncryption
        Issuer: CN=main_server.local
        Validity
            Not Before: May 21 12:24:15 2024 GMT
            Not After : Aug 24 12:24:15 2026 GMT
        Subject: CN=host
        Subject Public Key Info:
            Public Key Algorithm: rsaEncryption
                Public-Key: (2048 bit)
                Modulus:
                    00:9e:dc:6f:2d:2f:f2:2f:d5:97:95:e3:c8:80:80:
                    1a:33:59:6e:b4:c3:5c:ca:b1:4c:ca:7b:cf:cc:5f:
                    5b:94:d8:72:9f:b8:de:72:36:c1:be:1e:e9:4e:09:
                    55:38:ee:68:ca:ee:80:04:9e:e2:d2:12:61:2f:9c:
                    87:ee:1a:44:ea:2f:21:99:a6:48:b9:21:d6:78:4b:
                    5b:c8:84:3d:0c:17:40:7f:b5:75:38:e2:16:77:c6:
                    33:ec:6e:79:7e:9d:25:f8:ce:23:6c:21:65:20:e6:
                    37:10:3d:60:d7:c1:3d:af:25:8e:ad:74:ee:29:de:
                    de:9e:a1:7e:d1:54:8e:7c:b7:5b:21:b0:ee:6f:ac:
                    ed:ee:27:f0:e6:ee:f7:42:56:db:1c:c6:9d:ef:77:
                    1a:53:94:ba:54:a2:e1:03:7a:6c:dd:0c:b4:99:59:
                    67:c6:82:99:6c:58:7e:c8:4f:4f:b5:7e:4c:fc:3c:
                    0d:e6:08:11:58:30:d2:7b:7a:fc:d7:2e:8a:ee:0a:
                    da:f1:55:de:23:bf:ec:2b:b3:b4:47:f8:1d:1d:af:
                    23:9c:f7:88:2e:71:93:7d:88:18:f5:c7:d6:e2:2b:
                    ad:87:90:d5:61:75:64:69:92:e8:be:e8:27:3b:66:
                    de:a6:25:97:0c:0c:3c:d9:57:07:ec:aa:be:05:b2:
                    9a:a3
                Exponent: 65537 (0x10001)
        X509v3 extensions:
            X509v3 Basic Constraints: 
                CA:FALSE
            X509v3 Subject Key Identifier: 
                7E:F7:C1:56:08:0F:13:31:87:D9:37:2E:E5:47:B8:79:7C:D1:C0:08
            X509v3 Authority Key Identifier: 
                keyid:9F:4A:2D:DE:31:ED:F7:BC:A3:29:4B:FD:6A:6B:2C:14:4A:6D:D6:D4
                DirName:/CN=main_server.local
                serial:41:77:56:6A:53:A5:23:74:72:4B:C2:7C:4C:68:B6:07:07:68:08:6F
            X509v3 Extended Key Usage: 
                TLS Web Client Authentication
            X509v3 Key Usage: 
                Digital Signature
    Signature Algorithm: sha256WithRSAEncryption
    Signature Value:
        e2:7e:39:e1:71:3d:aa:98:19:0c:17:50:93:f3:ab:06:b1:e4:
        7b:8b:b2:38:31:91:f6:8c:9e:bc:76:bd:ca:de:27:17:17:92:
        71:41:ae:84:96:e5:c8:08:70:7d:bc:3f:37:d0:b6:45:6a:a3:
        07:d9:a5:5e:8d:3d:3c:b9:45:e6:c4:06:64:6f:ff:1e:6b:b4:
        76:20:49:52:af:3c:25:4d:d6:f5:4e:12:d6:eb:48:13:91:b6:
        22:a7:71:08:ef:b7:5c:1a:6e:fd:78:00:38:07:27:9b:c7:d8:
        b9:d0:31:88:da:34:d2:28:86:87:03:91:e9:4b:e3:39:38:3b:
        d4:6b:b8:de:84:35:5c:5d:26:41:26:6d:04:30:0a:bb:02:b0:
        53:c6:97:11:e3:fb:38:75:82:5a:70:e2:16:57:2a:4f:b4:84:
        c9:bd:a1:ce:ff:3b:06:ca:56:87:c3:49:c5:52:a1:19:29:b8:
        bb:69:39:c7:46:e4:88:45:24:15:19:fd:38:fd:fe:e9:aa:84:
        ad:d2:90:05:d2:ef:fd:41:78:37:61:c4:e1:25:2b:5d:a7:b2:
        ae:13:8d:6d:63:a4:a3:e1:a8:49:ef:e3:2e:e9:59:6c:49:71:
        c0:5e:0e:1b:07:09:4b:df:58:69:89:b3:95:f8:75:3a:c1:0e:
        a7:9c:09:88
-----BEGIN CERTIFICATE-----
MIIDXzCCAkegAwIBAgIRANYEKz8xSiafKYi1stONtFMwDQYJKoZIhvcNAQELBQAw
HDEaMBgGA1UEAwwRbWFpbl9zZXJ2ZXIubG9jYWwwHhcNMjQwNTIxMTIyNDE1WhcN
MjYwODI0MTIyNDE1WjAPMQ0wCwYDVQQDDARob3N0MIIBIjANBgkqhkiG9w0BAQEF
AAOCAQ8AMIIBCgKCAQEAntxvLS/yL9WXlePIgIAaM1lutMNcyrFMynvPzF9blNhy
n7jecjbBvh7pTglVOO5oyu6ABJ7i0hJhL5yH7hpE6i8hmaZIuSHWeEtbyIQ9DBdA
f7V1OOIWd8Yz7G55fp0l+M4jbCFlIOY3ED1g18E9ryWOrXTuKd7enqF+0VSOfLdb
IbDub6zt7ifw5u73QlbbHMad73caU5S6VKLhA3ps3Qy0mVlnxoKZbFh+yE9PtX5M
/DwN5ggRWDDSe3r81y6K7gra8VXeI7/sK7O0R/gdHa8jnPeILnGTfYgY9cfW4iut
h5DVYXVkaZLovugnO2bepiWXDAw82VcH7Kq+BbKaowIDAQABo4GoMIGlMAkGA1Ud
EwQCMAAwHQYDVR0OBBYEFH73wVYIDxMxh9k3LuVHuHl80cAIMFcGA1UdIwRQME6A
FJ9KLd4x7fe8oylL/WprLBRKbdbUoSCkHjAcMRowGAYDVQQDDBFtYWluX3NlcnZl
ci5sb2NhbIIUQXdWalOlI3RyS8J8TGi2BwdoCG8wEwYDVR0lBAwwCgYIKwYBBQUH
AwIwCwYDVR0PBAQDAgeAMA0GCSqGSIb3DQEBCwUAA4IBAQDifjnhcT2qmBkMF1CT
86sGseR7i7I4MZH2jJ68dr3K3icXF5JxQa6EluXICHB9vD830LZFaqMH2aVejT08
uUXmxAZkb/8ea7R2IElSrzwlTdb1ThLW60gTkbYip3EI77dcGm79eAA4Byebx9i5
0DGI2jTSKIaHA5HpS+M5ODvUa7jehDVcXSZBJm0EMAq7ArBTxpcR4/s4dYJacOIW
VypPtITJvaHO/zsGylaHw0nFUqEZKbi7aTnHRuSIRSQVGf04/f7pqoSt0pAF0u/9
QXg3YcThJStdp7KuE41tY6Sj4ahJ7+Mu6VlsSXHAXg4bBwlL31hpibOV+HU6wQ6n
nAmI
-----END CERTIFICATE-----
