Certificate:
    Data:
        Version: 3 (0x2)
        Serial Number:
            8f:53:ce:50:33:a7:28:5f:c2:0c:84:b3:dd:a1:40:22
        Signature Algorithm: sha256WithRSAEncryption
        Issuer: CN=main_server.local
        Validity
            Not Before: May 21 12:24:08 2024 GMT
            Not After : Aug 24 12:24:08 2026 GMT
        Subject: CN=far
        Subject Public Key Info:
            Public Key Algorithm: rsaEncryption
                Public-Key: (2048 bit)
                Modulus:
                    00:a8:ad:74:9c:2c:6f:89:88:02:ea:aa:00:7f:91:
                    c5:e9:36:33:c3:8b:62:4c:41:9e:2e:22:a3:4c:e5:
                    c0:07:ba:54:0c:a1:8d:1f:c5:1b:4c:fd:af:4b:6d:
                    6a:eb:15:e3:f3:52:71:6b:a3:35:0e:bb:ed:b0:ca:
                    16:27:78:b3:70:02:d3:ec:9b:67:b2:5b:8c:41:39:
                    d7:20:17:a0:89:ca:9e:da:8e:30:e0:48:63:dc:85:
                    f3:0d:42:72:32:8d:fd:43:8b:78:84:93:1a:e5:a0:
                    45:4c:8f:eb:bc:da:b7:22:a9:79:58:a7:a4:83:38:
                    19:df:be:31:ff:14:47:89:21:8c:57:27:28:33:f0:
                    b6:83:82:e1:8e:5a:a1:7c:2b:b5:0b:85:4c:cc:ea:
                    38:1f:57:cd:c0:a8:92:8e:62:e7:af:f0:eb:66:57:
                    e2:54:2b:69:09:a8:6e:d5:53:58:5e:45:b0:a0:36:
                    5d:eb:40:91:b6:c2:61:9b:9f:cb:ae:86:8d:9b:c2:
                    4f:f7:71:b3:f1:27:07:0c:58:24:56:d8:24:a9:de:
                    9a:f0:2b:3a:42:77:6a:f1:0b:11:56:00:7b:47:09:
                    1c:95:f1:96:33:21:6c:9f:a4:38:25:3c:b5:70:7c:
                    86:50:27:1b:c3:04:73:dc:18:e0:73:8c:b3:34:d3:
                    b4:c9
                Exponent: 65537 (0x10001)
        X509v3 extensions:
            X509v3 Basic Constraints: 
                CA:FALSE
            X509v3 Subject Key Identifier: 
                45:D5:28:F8:AB:AC:0F:D5:86:E1:E8:69:BF:DF:51:E5:BB:BA:DA:C7
            X509v3 Authority Key Identifier: 
                keyid:9F:4A:2D:DE:31:ED:F7:BC:A3:29:4B:FD:6A:6B:2C:14:4A:6D:D6:D4
                DirName:/CN=main_server.local
                serial:41:77:56:6A:53:A5:23:74:72:4B:C2:7C:4C:68:B6:07:07:68:08:6F
            X509v3 Extended Key Usage: 
                TLS Web Client Authentication
            X509v3 Key Usage: 
                Digital Signature
    Signature Algorithm: sha256WithRSAEncryption
    Signature Value:
        34:41:f7:13:de:db:4b:03:38:fa:f3:47:0e:8f:23:0d:22:82:
        f4:d6:e8:1c:8d:4c:ec:5b:94:e5:bd:8e:49:3a:55:08:73:a2:
        e9:56:32:b5:9b:d3:68:a2:15:b5:ec:49:ef:db:c2:eb:a3:81:
        39:2a:e8:06:a8:d4:d1:ab:b9:d6:26:e4:a7:0e:8c:1a:e1:07:
        20:c0:14:8f:02:44:89:83:60:0a:a5:54:a4:37:be:db:cc:23:
        c0:2d:91:6b:e5:63:1c:e8:48:80:ec:5b:54:90:83:ef:b6:52:
        b5:fd:80:61:a9:79:65:a1:3e:d1:3e:1e:59:6e:5c:a8:e9:f7:
        6f:c2:54:cd:28:4a:00:a8:d5:ae:dc:2b:f6:04:da:ff:60:a5:
        47:c9:0d:d3:bc:a1:38:0f:e2:6e:25:6f:93:6d:a1:1c:09:5a:
        b5:34:2f:81:39:9f:ad:10:81:6e:c3:64:13:7b:81:1d:ac:a6:
        07:5c:13:cc:07:68:05:47:8f:80:37:a0:e4:c3:c2:e2:c7:ac:
        a0:38:90:c3:d5:7e:82:e8:11:3e:70:54:0a:a4:23:67:4d:1e:
        b3:81:ad:45:15:ab:0a:be:b8:e9:85:aa:66:2f:89:63:9e:17:
        2b:d5:61:3e:e7:95:15:3f:00:49:1c:1c:9a:21:44:75:83:e2:
        9d:56:48:03
-----BEGIN CERTIFICATE-----
MIIDXjCCAkagAwIBAgIRAI9TzlAzpyhfwgyEs92hQCIwDQYJKoZIhvcNAQELBQAw
HDEaMBgGA1UEAwwRbWFpbl9zZXJ2ZXIubG9jYWwwHhcNMjQwNTIxMTIyNDA4WhcN
MjYwODI0MTIyNDA4WjAOMQwwCgYDVQQDDANmYXIwggEiMA0GCSqGSIb3DQEBAQUA
A4IBDwAwggEKAoIBAQCorXScLG+JiALqqgB/kcXpNjPDi2JMQZ4uIqNM5cAHulQM
oY0fxRtM/a9LbWrrFePzUnFrozUOu+2wyhYneLNwAtPsm2eyW4xBOdcgF6CJyp7a
jjDgSGPchfMNQnIyjf1Di3iEkxrloEVMj+u82rciqXlYp6SDOBnfvjH/FEeJIYxX
Jygz8LaDguGOWqF8K7ULhUzM6jgfV83AqJKOYuev8OtmV+JUK2kJqG7VU1heRbCg
Nl3rQJG2wmGbn8uuho2bwk/3cbPxJwcMWCRW2CSp3prwKzpCd2rxCxFWAHtHCRyV
8ZYzIWyfpDglPLVwfIZQJxvDBHPcGOBzjLM007TJAgMBAAGjgagwgaUwCQYDVR0T
BAIwADAdBgNVHQ4EFgQURdUo+KusD9WG4ehpv99R5bu62scwVwYDVR0jBFAwToAU
n0ot3jHt97yjKUv9amssFEpt1tShIKQeMBwxGjAYBgNVBAMMEW1haW5fc2VydmVy
LmxvY2FsghRBd1ZqU6UjdHJLwnxMaLYHB2gIbzATBgNVHSUEDDAKBggrBgEFBQcD
AjALBgNVHQ8EBAMCB4AwDQYJKoZIhvcNAQELBQADggEBADRB9xPe20sDOPrzRw6P
Iw0igvTW6ByNTOxblOW9jkk6VQhzoulWMrWb02iiFbXsSe/bwuujgTkq6Aao1NGr
udYm5KcOjBrhByDAFI8CRImDYAqlVKQ3vtvMI8AtkWvlYxzoSIDsW1SQg++2UrX9
gGGpeWWhPtE+HlluXKjp92/CVM0oSgCo1a7cK/YE2v9gpUfJDdO8oTgP4m4lb5Nt
oRwJWrU0L4E5n60QgW7DZBN7gR2spgdcE8wHaAVHj4A3oOTDwuLHrKA4kMPVfoLo
ET5wVAqkI2dNHrOBrUUVqwq+uOmFqmYviWOeFyvVYT7nlRU/AEkcHJohRHWD4p1W
SAM=
-----END CERTIFICATE-----
